target datalayout = "e-m:e-p270:32:32-p271:32:32-p272:64:64-i64:64-i128:128-f80:128-n8:16:32:64-S128"
target triple = "x86_64-pc-linux-gnu"

%struct.archive = type { i32, i32, ptr, i32, ptr, i32, i32, ptr, %struct.archive_string, ptr, i32, i32, ptr, ptr, i64, i64, i64, i8, i64 }
%struct.archive_string = type { ptr, i64, i64 }
%struct.archive_write_filter = type { i64, ptr, ptr, ptr, ptr, ptr, ptr, ptr, ptr, ptr, ptr, i32, i32, i32, i32 }
%struct.private_data = type { i32, i32, i32, i32, i32, i64, i64, i64, i64, i64, i64, i64, i64, ptr, %struct.ZSTD_outBuffer_s }
%struct.ZSTD_outBuffer_s = type { ptr, i64, i64 }

@.str.14 = private unnamed_addr constant [43 x i8] c"Can't allocate data for compression buffer\00", align 1
@.str.15 = private unnamed_addr constant [51 x i8] c"Internal error initializing zstd compressor object\00", align 1

; Function Attrs: nounwind uwtable
define internal i32 @archive_compressor_zstd_open(ptr noundef %0) #0 {
  %2 = alloca i32, align 4
  %3 = alloca ptr, align 8
  %4 = alloca ptr, align 8
  %5 = alloca i64, align 8
  %6 = alloca i64, align 8
  %7 = alloca i32, align 4
  store ptr %0, ptr %3, align 8, !tbaa !11
  call void @llvm.lifetime.start.p0(i64 8, ptr %4) #8
  %8 = load ptr, ptr %3, align 8, !tbaa !11
  %9 = getelementptr inbounds nuw %struct.archive_write_filter, ptr %8, i32 0, i32 9
  %10 = load ptr, ptr %9, align 8, !tbaa !17
  store ptr %10, ptr %4, align 8, !tbaa !15
  %11 = load ptr, ptr %4, align 8, !tbaa !15
  %12 = getelementptr inbounds nuw %struct.private_data, ptr %11, i32 0, i32 14
  %13 = getelementptr inbounds nuw %struct.ZSTD_outBuffer_s, ptr %12, i32 0, i32 0
  %14 = load ptr, ptr %13, align 8, !tbaa !42
  %15 = icmp eq ptr %14, null
  br i1 %15, label %16, label %75

16:                                               ; preds = %1
  call void @llvm.lifetime.start.p0(i64 8, ptr %5) #8
  %17 = call i64 @ZSTD_CStreamOutSize()
  store i64 %17, ptr %5, align 8, !tbaa !43
  call void @llvm.lifetime.start.p0(i64 8, ptr %6) #8
  %18 = load ptr, ptr %3, align 8, !tbaa !11
  %19 = getelementptr inbounds nuw %struct.archive_write_filter, ptr %18, i32 0, i32 1
  %20 = load ptr, ptr %19, align 8, !tbaa !44
  %21 = getelementptr inbounds nuw %struct.archive, ptr %20, i32 0, i32 0
  %22 = load i32, ptr %21, align 8, !tbaa !45
  %23 = icmp eq i32 %22, -1329217314
  br i1 %23, label %24, label %46

24:                                               ; preds = %16
  %25 = load ptr, ptr %3, align 8, !tbaa !11
  %26 = getelementptr inbounds nuw %struct.archive_write_filter, ptr %25, i32 0, i32 1
  %27 = load ptr, ptr %26, align 8, !tbaa !44
  %28 = call i32 @archive_write_get_bytes_per_block(ptr noundef %27)
  %29 = sext i32 %28 to i64
  store i64 %29, ptr %6, align 8, !tbaa !43
  %30 = load i64, ptr %6, align 8, !tbaa !43
  %31 = load i64, ptr %5, align 8, !tbaa !43
  %32 = icmp ugt i64 %30, %31
  br i1 %32, label %33, label %35

33:                                               ; preds = %24
  %34 = load i64, ptr %6, align 8, !tbaa !43
  store i64 %34, ptr %5, align 8, !tbaa !43
  br label %45

35:                                               ; preds = %24
  %36 = load i64, ptr %6, align 8, !tbaa !43
  %37 = icmp ne i64 %36, 0
  br i1 %37, label %38, label %44

38:                                               ; preds = %35
  %39 = load i64, ptr %5, align 8, !tbaa !43
  %40 = load i64, ptr %6, align 8, !tbaa !43
  %41 = urem i64 %39, %40
  %42 = load i64, ptr %5, align 8, !tbaa !43
  %43 = sub i64 %42, %41
  store i64 %43, ptr %5, align 8, !tbaa !43
  br label %44

44:                                               ; preds = %38, %35
  br label %45

45:                                               ; preds = %44, %33
  br label %46

46:                                               ; preds = %45, %16
  %47 = load i64, ptr %5, align 8, !tbaa !43
  %48 = load ptr, ptr %4, align 8, !tbaa !15
  %49 = getelementptr inbounds nuw %struct.private_data, ptr %48, i32 0, i32 14
  %50 = getelementptr inbounds nuw %struct.ZSTD_outBuffer_s, ptr %49, i32 0, i32 1
  store i64 %47, ptr %50, align 8, !tbaa !50
  %51 = load ptr, ptr %4, align 8, !tbaa !15
  %52 = getelementptr inbounds nuw %struct.private_data, ptr %51, i32 0, i32 14
  %53 = getelementptr inbounds nuw %struct.ZSTD_outBuffer_s, ptr %52, i32 0, i32 2
  store i64 0, ptr %53, align 8, !tbaa !51
  %54 = load ptr, ptr %4, align 8, !tbaa !15
  %55 = getelementptr inbounds nuw %struct.private_data, ptr %54, i32 0, i32 14
  %56 = getelementptr inbounds nuw %struct.ZSTD_outBuffer_s, ptr %55, i32 0, i32 1
  %57 = load i64, ptr %56, align 8, !tbaa !50
  %58 = call noalias ptr @malloc(i64 noundef %57) #10
  %59 = load ptr, ptr %4, align 8, !tbaa !15
  %60 = getelementptr inbounds nuw %struct.private_data, ptr %59, i32 0, i32 14
  %61 = getelementptr inbounds nuw %struct.ZSTD_outBuffer_s, ptr %60, i32 0, i32 0
  store ptr %58, ptr %61, align 8, !tbaa !42
  %62 = load ptr, ptr %4, align 8, !tbaa !15
  %63 = getelementptr inbounds nuw %struct.private_data, ptr %62, i32 0, i32 14
  %64 = getelementptr inbounds nuw %struct.ZSTD_outBuffer_s, ptr %63, i32 0, i32 0
  %65 = load ptr, ptr %64, align 8, !tbaa !42
  %66 = icmp eq ptr %65, null
  br i1 %66, label %67, label %71

67:                                               ; preds = %46
  %68 = load ptr, ptr %3, align 8, !tbaa !11
  %69 = getelementptr inbounds nuw %struct.archive_write_filter, ptr %68, i32 0, i32 1
  %70 = load ptr, ptr %69, align 8, !tbaa !44
  call void (ptr, i32, ptr, ...) @archive_set_error(ptr noundef %70, i32 noundef 12, ptr noundef @.str.14)
  store i32 -30, ptr %2, align 4
  store i32 1, ptr %7, align 4
  br label %72

71:                                               ; preds = %46
  store i32 0, ptr %7, align 4
  br label %72

72:                                               ; preds = %71, %67
  call void @llvm.lifetime.end.p0(i64 8, ptr %6) #8
  call void @llvm.lifetime.end.p0(i64 8, ptr %5) #8
  %73 = load i32, ptr %7, align 4
  switch i32 %73, label %106 [
    i32 0, label %74
  ]

74:                                               ; preds = %72
  br label %75

75:                                               ; preds = %74, %1
  %76 = load ptr, ptr %3, align 8, !tbaa !11
  %77 = getelementptr inbounds nuw %struct.archive_write_filter, ptr %76, i32 0, i32 5
  store ptr @archive_compressor_zstd_write, ptr %77, align 8, !tbaa !52
  %78 = load ptr, ptr %4, align 8, !tbaa !15
  %79 = getelementptr inbounds nuw %struct.private_data, ptr %78, i32 0, i32 13
  %80 = load ptr, ptr %79, align 8, !tbaa !41
  %81 = load ptr, ptr %4, align 8, !tbaa !15
  %82 = getelementptr inbounds nuw %struct.private_data, ptr %81, i32 0, i32 0
  %83 = load i32, ptr %82, align 8, !tbaa !28
  %84 = call i64 @ZSTD_initCStream(ptr noundef %80, i32 noundef %83)
  %85 = call i32 @ZSTD_isError(i64 noundef %84)
  %86 = icmp ne i32 %85, 0
  br i1 %86, label %87, label %91

87:                                               ; preds = %75
  %88 = load ptr, ptr %3, align 8, !tbaa !11
  %89 = getelementptr inbounds nuw %struct.archive_write_filter, ptr %88, i32 0, i32 1
  %90 = load ptr, ptr %89, align 8, !tbaa !44
  call void (ptr, i32, ptr, ...) @archive_set_error(ptr noundef %90, i32 noundef -1, ptr noundef @.str.15)
  store i32 -30, ptr %2, align 4
  store i32 1, ptr %7, align 4
  br label %106

91:                                               ; preds = %75
  %92 = load ptr, ptr %4, align 8, !tbaa !15
  %93 = getelementptr inbounds nuw %struct.private_data, ptr %92, i32 0, i32 13
  %94 = load ptr, ptr %93, align 8, !tbaa !41
  %95 = load ptr, ptr %4, align 8, !tbaa !15
  %96 = getelementptr inbounds nuw %struct.private_data, ptr %95, i32 0, i32 1
  %97 = load i32, ptr %96, align 4, !tbaa !32
  %98 = call i64 @ZSTD_CCtx_setParameter(ptr noundef %94, i32 noundef 400, i32 noundef %97)
  %99 = load ptr, ptr %4, align 8, !tbaa !15
  %100 = getelementptr inbounds nuw %struct.private_data, ptr %99, i32 0, i32 13
  %101 = load ptr, ptr %100, align 8, !tbaa !41
  %102 = load ptr, ptr %4, align 8, !tbaa !15
  %103 = getelementptr inbounds nuw %struct.private_data, ptr %102, i32 0, i32 2
  %104 = load i32, ptr %103, align 8, !tbaa !33
  %105 = call i64 @ZSTD_CCtx_setParameter(ptr noundef %101, i32 noundef 101, i32 noundef %104)
  store i32 0, ptr %2, align 4
  store i32 1, ptr %7, align 4
  br label %106

106:                                              ; preds = %91, %87, %72
  call void @llvm.lifetime.end.p0(i64 8, ptr %4) #8
  %107 = load i32, ptr %2, align 4
  ret i32 %107
}