; Function Attrs: nounwind uwtable
define internal range(i32 -30, 1) i32 @archive_compressor_zstd_open(ptr noundef captures(none) %0) #0 {
  %2 = getelementptr inbounds nuw i8, ptr %0, i64 72
  %3 = load ptr, ptr %2, align 8, !tbaa !4
  %4 = getelementptr inbounds nuw i8, ptr %3, i64 96
  %5 = load ptr, ptr %4, align 8, !tbaa !28
  %6 = icmp eq ptr %5, null
  br i1 %6, label %7, label %.critedge

7:                                                ; preds = %1
  %8 = tail call i64 @ZSTD_CStreamOutSize() #10
  %9 = getelementptr inbounds nuw i8, ptr %0, i64 8
  %10 = load ptr, ptr %9, align 8, !tbaa !29
  %11 = load i32, ptr %10, align 8, !tbaa !30
  %12 = icmp eq i32 %11, -1329217314
  br i1 %12, label %13, label %21

13:                                               ; preds = %7
  %14 = tail call i32 @archive_write_get_bytes_per_block(ptr noundef nonnull %10) #10
  %15 = sext i32 %14 to i64
  %16 = icmp ult i64 %8, %15
  br i1 %16, label %21, label %17

17:                                               ; preds = %13
  %.not = icmp eq i32 %14, 0
  br i1 %.not, label %21, label %18

18:                                               ; preds = %17
  %19 = urem i64 %8, %15
  %20 = sub i64 %8, %19
  br label %21

21:                                               ; preds = %13, %18, %17, %7
  %.028 = phi i64 [ %20, %18 ], [ %8, %17 ], [ %8, %7 ], [ %15, %13 ]
  %22 = getelementptr inbounds nuw i8, ptr %3, i64 104
  store i64 %.028, ptr %22, align 8, !tbaa !35
  %23 = getelementptr inbounds nuw i8, ptr %3, i64 112
  store i64 0, ptr %23, align 8, !tbaa !36
  %24 = tail call noalias ptr @malloc(i64 noundef %.028) #12
  store ptr %24, ptr %4, align 8, !tbaa !28
  %.not32 = icmp eq ptr %24, null
  br i1 %.not32, label %25, label %.critedge

25:                                               ; preds = %21
  %26 = load ptr, ptr %9, align 8, !tbaa !29
  tail call void (ptr, i32, ptr, ...) @archive_set_error(ptr noundef %26, i32 noundef 12, ptr noundef nonnull @.str.14) #10
  br label %45

.critedge:                                        ; preds = %21, %1
  %27 = getelementptr inbounds nuw i8, ptr %0, i64 40
  store ptr @archive_compressor_zstd_write, ptr %27, align 8, !tbaa !37
  %28 = getelementptr inbounds nuw i8, ptr %3, i64 88
  %29 = load ptr, ptr %28, align 8, !tbaa !27
  %30 = load i32, ptr %3, align 8, !tbaa !21
  %31 = tail call i64 @ZSTD_initCStream(ptr noundef %29, i32 noundef %30) #10
  %32 = tail call i32 @ZSTD_isError(i64 noundef %31) #10
  %.not33 = icmp eq i32 %32, 0
  br i1 %.not33, label %36, label %33

33:                                               ; preds = %.critedge
  %34 = getelementptr inbounds nuw i8, ptr %0, i64 8
  %35 = load ptr, ptr %34, align 8, !tbaa !29
  tail call void (ptr, i32, ptr, ...) @archive_set_error(ptr noundef %35, i32 noundef -1, ptr noundef nonnull @.str.15) #10
  br label %45

36:                                               ; preds = %.critedge
  %37 = load ptr, ptr %28, align 8, !tbaa !27
  %38 = getelementptr inbounds nuw i8, ptr %3, i64 4
  %39 = load i32, ptr %38, align 4, !tbaa !38
  %40 = tail call i64 @ZSTD_CCtx_setParameter(ptr noundef %37, i32 noundef 400, i32 noundef %39) #10
  %41 = load ptr, ptr %28, align 8, !tbaa !27
  %42 = getelementptr inbounds nuw i8, ptr %3, i64 8
  %43 = load i32, ptr %42, align 8, !tbaa !39
  %44 = tail call i64 @ZSTD_CCtx_setParameter(ptr noundef %41, i32 noundef 101, i32 noundef %43) #10
  br label %45

45:                                               ; preds = %25, %36, %33
  %.1 = phi i32 [ -30, %33 ], [ 0, %36 ], [ -30, %25 ]
  ret i32 %.1
}